target datalayout = "e-m:e-p270:32:32-p271:32:32-p272:64:64-i64:64-i128:128-f80:128-n8:16:32:64-S128"
target triple = "x86_64-pc-linux-gnu"

%struct.BufImageS_t = type { ptr, %struct.RasterS_t, %struct.ColorModelS_t, %struct.HintS_t, i32 }
%struct.RasterS_t = type { ptr, ptr, ptr, %struct.SPPSampleModelS_t, ptr, i32, i32, i32, i32, i32, i32, i32, i32, i32, i32, i32, i32, i32, i32, i32, i32, i32 }
%struct.SPPSampleModelS_t = type { [32 x i32], [32 x i32], [32 x i32], i32, i32 }
%struct.ColorModelS_t = type { ptr, ptr, ptr, ptr, i32, i32, i32, i32, i32, i32, i32, i32, i32, i32, i32, i32 }
%struct.HintS_t = type { ptr, i32, i32, i32, i32, i32, i32, i32, i32, i32 }

; Function Attrs: nounwind uwtable
define hidden void @awt_freeParsedRaster(ptr noundef %0, i32 noundef %1) #0 {
  %3 = alloca ptr, align 8
  %4 = alloca i32, align 4
  store ptr %0, ptr %3, align 8
  store i32 %1, ptr %4, align 4
  %5 = load ptr, ptr %3, align 8
  %6 = getelementptr inbounds %struct.RasterS_t, ptr %5, i32 0, i32 4
  %7 = load ptr, ptr %6, align 8
  %8 = icmp ne ptr %7, null
  br i1 %8, label %9, label %13

9:                                                ; preds = %2
  %10 = load ptr, ptr %3, align 8
  %11 = getelementptr inbounds %struct.RasterS_t, ptr %10, i32 0, i32 4
  %12 = load ptr, ptr %11, align 8
  call void @free(ptr noundef %12) #6
  br label %13

13:                                               ; preds = %9, %2
  %14 = load i32, ptr %4, align 4
  %15 = icmp ne i32 %14, 0
  br i1 %15, label %16, label %18

16:                                               ; preds = %13
  %17 = load ptr, ptr %3, align 8
  call void @free(ptr noundef %17) #6
  br label %18

18:                                               ; preds = %16, %13
  ret void
}

; Function Attrs: nounwind uwtable
define hidden void @awt_freeParsedImage(ptr noundef %0, i32 noundef %1) #0 {
  %3 = alloca ptr, align 8
  %4 = alloca i32, align 4
  store ptr %0, ptr %3, align 8
  store i32 %1, ptr %4, align 4
  %5 = load ptr, ptr %3, align 8
  %6 = getelementptr inbounds %struct.BufImageS_t, ptr %5, i32 0, i32 3
  %7 = getelementptr inbounds %struct.HintS_t, ptr %6, i32 0, i32 0
  %8 = load ptr, ptr %7, align 8
  %9 = icmp ne ptr %8, null
  br i1 %9, label %10, label %15

10:                                               ; preds = %2
  %11 = load ptr, ptr %3, align 8
  %12 = getelementptr inbounds %struct.BufImageS_t, ptr %11, i32 0, i32 3
  %13 = getelementptr inbounds %struct.HintS_t, ptr %12, i32 0, i32 0
  %14 = load ptr, ptr %13, align 8
  call void @free(ptr noundef %14) #6
  br label %15

15:                                               ; preds = %10, %2
  %16 = load ptr, ptr %3, align 8
  %17 = getelementptr inbounds %struct.BufImageS_t, ptr %16, i32 0, i32 2
  %18 = getelementptr inbounds %struct.ColorModelS_t, ptr %17, i32 0, i32 3
  %19 = load ptr, ptr %18, align 8
  %20 = icmp ne ptr %19, null
  br i1 %20, label %21, label %26

21:                                               ; preds = %15
  %22 = load ptr, ptr %3, align 8
  %23 = getelementptr inbounds %struct.BufImageS_t, ptr %22, i32 0, i32 2
  %24 = getelementptr inbounds %struct.ColorModelS_t, ptr %23, i32 0, i32 3
  %25 = load ptr, ptr %24, align 8
  call void @free(ptr noundef %25) #6
  br label %26

26:                                               ; preds = %21, %15
  %27 = load ptr, ptr %3, align 8
  %28 = getelementptr inbounds %struct.BufImageS_t, ptr %27, i32 0, i32 1
  call void @awt_freeParsedRaster(ptr noundef %28, i32 noundef 0)
  %29 = load i32, ptr %4, align 4
  %30 = icmp ne i32 %29, 0
  br i1 %30, label %31, label %33

31:                                               ; preds = %26
  %32 = load ptr, ptr %3, align 8
  call void @free(ptr noundef %32) #6
  br label %33

33:                                               ; preds = %31, %26
  ret void
}