; Function Attrs: mustprogress nounwind willreturn uwtable
define hidden void @awt_freeParsedImage(ptr nocapture noundef %0, i32 noundef %1) local_unnamed_addr #4 {
  %3 = getelementptr inbounds i8, ptr %0, i64 584
  %4 = load ptr, ptr %3, align 8
  %.not = icmp eq ptr %4, null
  br i1 %.not, label %6, label %5

5:                                                ; preds = %2
  tail call void @free(ptr noundef nonnull %4) #8
  br label %6

6:                                                ; preds = %5, %2
  %7 = getelementptr inbounds i8, ptr %0, i64 528
  %8 = load ptr, ptr %7, align 8
  %.not7 = icmp eq ptr %8, null
  br i1 %.not7, label %10, label %9

9:                                                ; preds = %6
  tail call void @free(ptr noundef nonnull %8) #8
  br label %10

10:                                               ; preds = %9, %6
  %11 = getelementptr inbounds i8, ptr %0, i64 424
  %12 = load ptr, ptr %11, align 8
  %.not.i = icmp eq ptr %12, null
  br i1 %.not.i, label %awt_freeParsedRaster.exit, label %13

13:                                               ; preds = %10
  tail call void @free(ptr noundef nonnull %12) #8
  br label %awt_freeParsedRaster.exit

awt_freeParsedRaster.exit:                        ; preds = %10, %13
  %.not8 = icmp eq i32 %1, 0
  br i1 %.not8, label %15, label %14

14:                                               ; preds = %awt_freeParsedRaster.exit
  tail call void @free(ptr noundef nonnull %0) #8
  br label %15

15:                                               ; preds = %14, %awt_freeParsedRaster.exit
  ret void
}